; Function Attrs: mustprogress uwtable
define hidden noundef double @_ZNK2cv8tracking4impl3tld11TLDDetector2ScERKNS_4Mat_IhEE(ptr noundef nonnull readonly align 8 captures(none) dereferenceable(312) %0, ptr noundef nonnull align 8 dereferenceable(96) %1) local_unnamed_addr #4 align 2 personality ptr @__gxx_personality_v0 {
  %3 = alloca %"class.cv::Mat_", align 8
  %4 = alloca %"class.cv::Mat_", align 8
  call void @llvm.lifetime.start.p0(i64 96, ptr nonnull %4) #22
  call void @_ZN2cv3MatC2Eiii(ptr noundef nonnull align 8 dereferenceable(96) %4, i32 noundef 15, i32 noundef 15, i32 noundef 0)
  %5 = getelementptr inbounds nuw i8, ptr %0, i64 72
  %6 = load ptr, ptr %5, align 8, !tbaa !60
  %7 = invoke noundef i32 @_ZN2cv17tracking_internal9getMedianIiEET_RKSt6vectorIS2_SaIS2_EE(ptr noundef nonnull align 8 dereferenceable(24) %6)
          to label %.preheader unwind label %37

.preheader:                                       ; preds = %2
  %8 = getelementptr inbounds nuw i8, ptr %0, i64 40
  %9 = load ptr, ptr %8, align 8, !tbaa !57
  %10 = load i32, ptr %9, align 4, !tbaa !45
  %11 = icmp sgt i32 %10, 0
  br i1 %11, label %.lr.ph, label %._crit_edge

.lr.ph:                                           ; preds = %.preheader
  %12 = getelementptr inbounds nuw i8, ptr %0, i64 24
  %13 = getelementptr inbounds nuw i8, ptr %4, i64 16
  br label %39

._crit_edge:                                      ; preds = %58, %.preheader
  %.018.lcssa = phi double [ 0.000000e+00, %.preheader ], [ %.1, %58 ]
  call void @llvm.lifetime.start.p0(i64 96, ptr nonnull %3) #22
  invoke void @_ZN2cv3MatC2Eiii(ptr noundef nonnull align 8 dereferenceable(96) %3, i32 noundef 15, i32 noundef 15, i32 noundef 0)
          to label %.noexc unwind label %37

.noexc:                                           ; preds = %._crit_edge
  %14 = getelementptr inbounds nuw i8, ptr %0, i64 48
  %15 = load ptr, ptr %14, align 8, !tbaa !13
  %16 = load i32, ptr %15, align 4, !tbaa !45
  %17 = icmp sgt i32 %16, 0
  br i1 %17, label %.lr.ph.i, label %.loopexit

.lr.ph.i:                                         ; preds = %.noexc
  %18 = getelementptr inbounds nuw i8, ptr %0, i64 32
  %19 = getelementptr inbounds nuw i8, ptr %3, i64 16
  br label %20

20:                                               ; preds = %27, %.lr.ph.i
  %indvars.iv.i = phi i64 [ 0, %.lr.ph.i ], [ %indvars.iv.next.i, %27 ]
  %.079.i = phi double [ 0.000000e+00, %.lr.ph.i ], [ %.sroa.speculated.i, %27 ]
  %21 = load ptr, ptr %18, align 8, !tbaa !47
  %22 = getelementptr inbounds nuw i8, ptr %21, i64 16
  %23 = load ptr, ptr %22, align 8, !tbaa !48
  %24 = mul nuw nsw i64 %indvars.iv.i, 225
  %25 = getelementptr inbounds nuw i8, ptr %23, i64 %24
  store ptr %25, ptr %19, align 8, !tbaa !48
  %26 = invoke noundef double @_ZN2cv17tracking_internal10computeNCCERKNS_3MatES3_(ptr noundef nonnull align 8 dereferenceable(96) %3, ptr noundef nonnull align 8 dereferenceable(96) %1)
          to label %27 unwind label %35

27:                                               ; preds = %20
  %28 = fadd double %26, 1.000000e+00
  %29 = fmul double %28, 5.000000e-01
  %30 = fcmp olt double %.079.i, %29
  %.sroa.speculated.i = select i1 %30, double %29, double %.079.i
  %indvars.iv.next.i = add nuw nsw i64 %indvars.iv.i, 1
  %31 = load ptr, ptr %14, align 8, !tbaa !13
  %32 = load i32, ptr %31, align 4, !tbaa !45
  %33 = sext i32 %32 to i64
  %34 = icmp slt i64 %indvars.iv.next.i, %33
  br i1 %34, label %20, label %.loopexit, !llvm.loop !56

35:                                               ; preds = %20
  %36 = landingpad { ptr, i32 }
          cleanup
  call void @_ZN2cv3MatD2Ev(ptr noundef nonnull align 8 dereferenceable(96) %3) #22
  call void @llvm.lifetime.end.p0(i64 96, ptr nonnull %3) #22
  br label %.body

37:                                               ; preds = %._crit_edge, %2
  %38 = landingpad { ptr, i32 }
          cleanup
  br label %.body

39:                                               ; preds = %.lr.ph, %58
  %40 = phi i32 [ %10, %.lr.ph ], [ %59, %58 ]
  %indvars.iv = phi i64 [ 0, %.lr.ph ], [ %indvars.iv.next, %58 ]
  %.01820 = phi double [ 0.000000e+00, %.lr.ph ], [ %.1, %58 ]
  %41 = load ptr, ptr %5, align 8, !tbaa !60
  %42 = load ptr, ptr %41, align 8, !tbaa !61
  %43 = getelementptr inbounds nuw i32, ptr %42, i64 %indvars.iv
  %44 = load i32, ptr %43, align 4, !tbaa !45
  %.not = icmp sgt i32 %44, %7
  br i1 %.not, label %58, label %45

45:                                               ; preds = %39
  %46 = load ptr, ptr %12, align 8, !tbaa !58
  %47 = getelementptr inbounds nuw i8, ptr %46, i64 16
  %48 = load ptr, ptr %47, align 8, !tbaa !48
  %49 = mul nuw nsw i64 %indvars.iv, 225
  %50 = getelementptr inbounds nuw i8, ptr %48, i64 %49
  store ptr %50, ptr %13, align 8, !tbaa !48
  %51 = invoke noundef double @_ZN2cv17tracking_internal10computeNCCERKNS_3MatES3_(ptr noundef nonnull align 8 dereferenceable(96) %4, ptr noundef nonnull align 8 dereferenceable(96) %1)
          to label %52 unwind label %56

52:                                               ; preds = %45
  %53 = fadd double %51, 1.000000e+00
  %54 = fmul double %53, 5.000000e-01
  %55 = fcmp olt double %.01820, %54
  %.sroa.speculated = select i1 %55, double %54, double %.01820
  %.pre = load ptr, ptr %8, align 8, !tbaa !57
  %.pre23 = load i32, ptr %.pre, align 4, !tbaa !45
  br label %58

56:                                               ; preds = %45
  %57 = landingpad { ptr, i32 }
          cleanup
  br label %.body

58:                                               ; preds = %39, %52
  %59 = phi i32 [ %40, %39 ], [ %.pre23, %52 ]
  %.1 = phi double [ %.01820, %39 ], [ %.sroa.speculated, %52 ]
  %indvars.iv.next = add nuw nsw i64 %indvars.iv, 1
  %60 = sext i32 %59 to i64
  %61 = icmp slt i64 %indvars.iv.next, %60
  br i1 %61, label %39, label %._crit_edge, !llvm.loop !66

.loopexit:                                        ; preds = %27, %.noexc
  %.07.lcssa.i = phi double [ 0.000000e+00, %.noexc ], [ %.sroa.speculated.i, %27 ]
  call void @_ZN2cv3MatD2Ev(ptr noundef nonnull align 8 dereferenceable(96) %3) #22
  call void @llvm.lifetime.end.p0(i64 96, ptr nonnull %3) #22
  %62 = fadd double %.018.lcssa, %.07.lcssa.i
  %63 = fcmp oeq double %62, 0.000000e+00
  %64 = fdiv double %.018.lcssa, %62
  %.014 = select i1 %63, double 0.000000e+00, double %64
  call void @_ZN2cv3MatD2Ev(ptr noundef nonnull align 8 dereferenceable(96) %4) #22
  call void @llvm.lifetime.end.p0(i64 96, ptr nonnull %4) #22
  ret double %.014

.body:                                            ; preds = %37, %35, %56
  %.pn = phi { ptr, i32 } [ %57, %56 ], [ %38, %37 ], [ %36, %35 ]
  call void @_ZN2cv3MatD2Ev(ptr noundef nonnull align 8 dereferenceable(96) %4) #22
  call void @llvm.lifetime.end.p0(i64 96, ptr nonnull %4) #22
  resume { ptr, i32 } %.pn
}